; Function Attrs: nofree norecurse nosync nounwind memory(argmem: readwrite) uwtable
define internal void @sbr_hf_apply_noise_1(ptr noundef captures(none) %0, ptr noundef readonly captures(none) %1, ptr noundef readonly captures(none) %2, i32 noundef %3, i32 noundef %4, i32 noundef %5) #1 {
  %7 = icmp sgt i32 %5, 0
  br i1 %7, label %.lr.ph.preheader, label %sbr_hf_apply_noise.exit

.lr.ph.preheader:                                 ; preds = %6
  %8 = shl i32 %4, 1
  %9 = and i32 %8, 2
  %10 = sub nsw i32 1, %9
  %11 = sitofp i32 %10 to float
  %wide.trip.count = zext nneg i32 %5 to i64
  br label %.lr.ph

.lr.ph:                                           ; preds = %.lr.ph.preheader, %34
  %indvars.iv = phi i64 [ 0, %.lr.ph.preheader ], [ %indvars.iv.next, %34 ]
  %.034.i7 = phi i32 [ %3, %.lr.ph.preheader ], [ %17, %34 ]
  %.035.i6 = phi float [ %11, %.lr.ph.preheader ], [ %35, %34 ]
  %12 = getelementptr inbounds nuw [2 x float], ptr %0, i64 %indvars.iv
  %13 = load float, ptr %12, align 4, !tbaa !19
  %14 = getelementptr inbounds nuw i8, ptr %12, i64 4
  %15 = load float, ptr %14, align 4, !tbaa !19
  %16 = add nsw i32 %.034.i7, 1
  %17 = and i32 %16, 511
  %18 = getelementptr inbounds nuw float, ptr %1, i64 %indvars.iv
  %19 = load float, ptr %18, align 4, !tbaa !19
  %20 = fcmp nsz une float %19, 0.000000e+00
  br i1 %20, label %21, label %24

21:                                               ; preds = %.lr.ph
  %22 = tail call nsz float @llvm.fmuladd.f32(float %19, float 0.000000e+00, float %13)
  %23 = tail call nsz float @llvm.fmuladd.f32(float %19, float %.035.i6, float %15)
  br label %34

24:                                               ; preds = %.lr.ph
  %25 = getelementptr inbounds nuw float, ptr %2, i64 %indvars.iv
  %26 = load float, ptr %25, align 4, !tbaa !19
  %27 = zext nneg i32 %17 to i64
  %28 = getelementptr inbounds nuw [0 x [2 x float]], ptr @ff_sbr_noise_table, i64 0, i64 %27
  %29 = load float, ptr %28, align 8, !tbaa !19
  %30 = tail call nsz float @llvm.fmuladd.f32(float %26, float %29, float %13)
  %31 = getelementptr inbounds nuw i8, ptr %28, i64 4
  %32 = load float, ptr %31, align 4, !tbaa !19
  %33 = tail call nsz float @llvm.fmuladd.f32(float %26, float %32, float %15)
  br label %34

34:                                               ; preds = %24, %21
  %.032.i = phi nsz float [ %22, %21 ], [ %30, %24 ]
  %.0.i = phi nsz float [ %23, %21 ], [ %33, %24 ]
  store float %.032.i, ptr %12, align 4, !tbaa !19
  store float %.0.i, ptr %14, align 4, !tbaa !19
  %35 = fneg nsz float %.035.i6
  %indvars.iv.next = add nuw nsw i64 %indvars.iv, 1
  %exitcond.not = icmp eq i64 %indvars.iv.next, %wide.trip.count
  br i1 %exitcond.not, label %sbr_hf_apply_noise.exit, label %.lr.ph, !llvm.loop !33

sbr_hf_apply_noise.exit:                          ; preds = %34, %6
  ret void
}